target datalayout = "e-m:e-p270:32:32-p271:32:32-p272:64:64-i64:64-i128:128-f80:128-n8:16:32:64-S128"
target triple = "x86_64-pc-linux-gnu"

%struct.ARKodeMemRec = type { ptr, double, ptr, i32, i32, double, double, ptr, i32, double, ptr, i32, i32, ptr, ptr, i32, ptr, ptr, i32, ptr, ptr, ptr, ptr, ptr, ptr, ptr, ptr, ptr, ptr, ptr, ptr, ptr, ptr, ptr, i32, ptr, ptr, i32, ptr, i32, ptr, ptr, ptr, ptr, ptr, ptr, ptr, ptr, ptr, ptr, ptr, ptr, ptr, ptr, ptr, ptr, ptr, ptr, ptr, ptr, ptr, ptr, ptr, ptr, ptr, ptr, i32, ptr, ptr, ptr, ptr, ptr, ptr, ptr, i32, ptr, ptr, ptr, i32, ptr, ptr, ptr, ptr, ptr, ptr, ptr, i32, i32, i32, i32, double, double, double, double, double, double, double, double, double, double, i32, ptr, i64, i32, i32, i32, i32, i64, i64, i32, i64, i64, i64, i64, i64, i64, i64, double, double, double, double, double, i32, double, double, i32, i32, i32, i32, i32, i32, i32, i32, ptr, i32, ptr, ptr, ptr, ptr, i32, i32, i32 }
%struct.ARKodeARKStepMemRec = type { ptr, ptr, i32, i32, i32, i32, i32, i32, ptr, ptr, ptr, ptr, ptr, ptr, i32, i32, i32, i32, ptr, ptr, ptr, ptr, i32, ptr, double, double, double, double, i32, double, double, double, double, double, double, i32, i64, i32, i32, i32, ptr, ptr, ptr, ptr, ptr, ptr, i32, ptr, ptr, ptr, ptr, ptr, ptr, i32, i32, i64, i64, i64, i64, i64, ptr, ptr, i32, i32, i32, double, double, ptr, i32, ptr, ptr }

@.str = private unnamed_addr constant [123 x i8] c"generated/home/dtcxzyw/WorkSpace/Projects/compilers/llvm-opt-benchmark/bench/sundials/sundials/src/arkode/arkode_arkstep.c\00", align 1
@.str.57 = private unnamed_addr constant [33 x i8] c"Time step module memory is NULL.\00", align 1
@__func__.arkStep_SetInnerForcing = private unnamed_addr constant [24 x i8] c"arkStep_SetInnerForcing\00", align 1

; Function Attrs: nounwind uwtable
define i32 @arkStep_AccessStepMem(ptr noundef %0, ptr noundef %1, ptr noundef %2) #0 {
  %4 = alloca i32, align 4
  %5 = alloca ptr, align 8
  %6 = alloca ptr, align 8
  %7 = alloca ptr, align 8
  store ptr %0, ptr %5, align 8, !tbaa !15
  store ptr %1, ptr %6, align 8, !tbaa !217
  store ptr %2, ptr %7, align 8, !tbaa !221
  %8 = load ptr, ptr %5, align 8, !tbaa !15
  %9 = getelementptr inbounds nuw %struct.ARKodeMemRec, ptr %8, i32 0, i32 19
  %10 = load ptr, ptr %9, align 8, !tbaa !74
  %11 = icmp eq ptr %10, null
  br i1 %11, label %12, label %15

12:                                               ; preds = %3
  %13 = load ptr, ptr %5, align 8, !tbaa !15
  %14 = load ptr, ptr %6, align 8, !tbaa !217
  call void (ptr, i32, i32, ptr, ptr, ptr, ...) @arkProcessError(ptr noundef %13, i32 noundef -21, i32 noundef 2165, ptr noundef %14, ptr noundef @.str, ptr noundef @.str.57)
  store i32 -21, ptr %4, align 4
  br label %20

15:                                               ; preds = %3
  %16 = load ptr, ptr %5, align 8, !tbaa !15
  %17 = getelementptr inbounds nuw %struct.ARKodeMemRec, ptr %16, i32 0, i32 19
  %18 = load ptr, ptr %17, align 8, !tbaa !74
  %19 = load ptr, ptr %7, align 8, !tbaa !221
  store ptr %18, ptr %19, align 8, !tbaa !17
  store i32 0, ptr %4, align 4
  br label %20

20:                                               ; preds = %15, %12
  %21 = load i32, ptr %4, align 4
  ret i32 %21
}

; Function Attrs: nounwind uwtable
define i32 @arkStep_SetInnerForcing(ptr noundef %0, double noundef %1, double noundef %2, ptr noundef %3, i32 noundef %4) #0 {
  %6 = alloca i32, align 4
  %7 = alloca ptr, align 8
  %8 = alloca double, align 8
  %9 = alloca double, align 8
  %10 = alloca ptr, align 8
  %11 = alloca i32, align 4
  %12 = alloca ptr, align 8
  %13 = alloca i32, align 4
  %14 = alloca i32, align 4
  store ptr %0, ptr %7, align 8, !tbaa !15
  store double %1, ptr %8, align 8, !tbaa !7
  store double %2, ptr %9, align 8, !tbaa !7
  store ptr %3, ptr %10, align 8, !tbaa !173
  store i32 %4, ptr %11, align 4, !tbaa !13
  call void @llvm.lifetime.start.p0(i64 8, ptr %12) #8
  call void @llvm.lifetime.start.p0(i64 4, ptr %13) #8
  %15 = load ptr, ptr %7, align 8, !tbaa !15
  %16 = call i32 @arkStep_AccessStepMem(ptr noundef %15, ptr noundef @__func__.arkStep_SetInnerForcing, ptr noundef %12)
  store i32 %16, ptr %13, align 4, !tbaa !13
  %17 = load i32, ptr %13, align 4, !tbaa !13
  %18 = icmp ne i32 %17, 0
  br i1 %18, label %19, label %21

19:                                               ; preds = %5
  %20 = load i32, ptr %13, align 4, !tbaa !13
  store i32 %20, ptr %6, align 4
  store i32 1, ptr %14, align 4
  br label %179

21:                                               ; preds = %5
  %22 = load i32, ptr %11, align 4, !tbaa !13
  %23 = icmp sgt i32 %22, 0
  br i1 %23, label %24, label %165

24:                                               ; preds = %21
  %25 = load ptr, ptr %12, align 8, !tbaa !17
  %26 = getelementptr inbounds nuw %struct.ARKodeARKStepMemRec, ptr %25, i32 0, i32 5
  %27 = load i32, ptr %26, align 4, !tbaa !75
  %28 = icmp ne i32 %27, 0
  br i1 %28, label %29, label %34

29:                                               ; preds = %24
  %30 = load ptr, ptr %12, align 8, !tbaa !17
  %31 = getelementptr inbounds nuw %struct.ARKodeARKStepMemRec, ptr %30, i32 0, i32 63
  store i32 1, ptr %31, align 4, !tbaa !113
  %32 = load ptr, ptr %12, align 8, !tbaa !17
  %33 = getelementptr inbounds nuw %struct.ARKodeARKStepMemRec, ptr %32, i32 0, i32 64
  store i32 0, ptr %33, align 8, !tbaa !114
  br label %39

34:                                               ; preds = %24
  %35 = load ptr, ptr %12, align 8, !tbaa !17
  %36 = getelementptr inbounds nuw %struct.ARKodeARKStepMemRec, ptr %35, i32 0, i32 63
  store i32 0, ptr %36, align 4, !tbaa !113
  %37 = load ptr, ptr %12, align 8, !tbaa !17
  %38 = getelementptr inbounds nuw %struct.ARKodeARKStepMemRec, ptr %37, i32 0, i32 64
  store i32 1, ptr %38, align 8, !tbaa !114
  br label %39

39:                                               ; preds = %34, %29
  %40 = load double, ptr %8, align 8, !tbaa !7
  %41 = load ptr, ptr %12, align 8, !tbaa !17
  %42 = getelementptr inbounds nuw %struct.ARKodeARKStepMemRec, ptr %41, i32 0, i32 65
  store double %40, ptr %42, align 8, !tbaa !214
  %43 = load double, ptr %9, align 8, !tbaa !7
  %44 = load ptr, ptr %12, align 8, !tbaa !17
  %45 = getelementptr inbounds nuw %struct.ARKodeARKStepMemRec, ptr %44, i32 0, i32 66
  store double %43, ptr %45, align 8, !tbaa !215
  %46 = load ptr, ptr %10, align 8, !tbaa !173
  %47 = load ptr, ptr %12, align 8, !tbaa !17
  %48 = getelementptr inbounds nuw %struct.ARKodeARKStepMemRec, ptr %47, i32 0, i32 67
  store ptr %46, ptr %48, align 8, !tbaa !115
  %49 = load i32, ptr %11, align 4, !tbaa !13
  %50 = load ptr, ptr %12, align 8, !tbaa !17
  %51 = getelementptr inbounds nuw %struct.ARKodeARKStepMemRec, ptr %50, i32 0, i32 68
  store i32 %49, ptr %51, align 8, !tbaa !116
  %52 = load ptr, ptr %12, align 8, !tbaa !17
  %53 = getelementptr inbounds nuw %struct.ARKodeARKStepMemRec, ptr %52, i32 0, i32 60
  %54 = load ptr, ptr %53, align 8, !tbaa !110
  %55 = icmp ne ptr %54, null
  br i1 %55, label %56, label %164

56:                                               ; preds = %39
  %57 = load ptr, ptr %12, align 8, !tbaa !17
  %58 = getelementptr inbounds nuw %struct.ARKodeARKStepMemRec, ptr %57, i32 0, i32 61
  %59 = load ptr, ptr %58, align 8, !tbaa !111
  %60 = icmp ne ptr %59, null
  br i1 %60, label %61, label %164

61:                                               ; preds = %56
  %62 = load ptr, ptr %12, align 8, !tbaa !17
  %63 = getelementptr inbounds nuw %struct.ARKodeARKStepMemRec, ptr %62, i32 0, i32 62
  %64 = load i32, ptr %63, align 8, !tbaa !112
  %65 = load i32, ptr %11, align 4, !tbaa !13
  %66 = sub nsw i32 %64, %65
  %67 = load ptr, ptr %12, align 8, !tbaa !17
  %68 = getelementptr inbounds nuw %struct.ARKodeARKStepMemRec, ptr %67, i32 0, i32 17
  %69 = load i32, ptr %68, align 4, !tbaa !158
  %70 = mul nsw i32 2, %69
  %71 = add nsw i32 %70, 2
  %72 = icmp slt i32 %66, %71
  br i1 %72, label %73, label %163

73:                                               ; preds = %61
  %74 = load ptr, ptr %12, align 8, !tbaa !17
  %75 = getelementptr inbounds nuw %struct.ARKodeARKStepMemRec, ptr %74, i32 0, i32 60
  %76 = load ptr, ptr %75, align 8, !tbaa !110
  %77 = icmp ne ptr %76, null
  br i1 %77, label %78, label %90

78:                                               ; preds = %73
  %79 = load ptr, ptr %12, align 8, !tbaa !17
  %80 = getelementptr inbounds nuw %struct.ARKodeARKStepMemRec, ptr %79, i32 0, i32 60
  %81 = load ptr, ptr %80, align 8, !tbaa !110
  call void @free(ptr noundef %81) #8
  %82 = load ptr, ptr %12, align 8, !tbaa !17
  %83 = getelementptr inbounds nuw %struct.ARKodeARKStepMemRec, ptr %82, i32 0, i32 62
  %84 = load i32, ptr %83, align 8, !tbaa !112
  %85 = sext i32 %84 to i64
  %86 = load ptr, ptr %7, align 8, !tbaa !15
  %87 = getelementptr inbounds nuw %struct.ARKodeMemRec, ptr %86, i32 0, i32 115
  %88 = load i64, ptr %87, align 8, !tbaa !85
  %89 = sub nsw i64 %88, %85
  store i64 %89, ptr %87, align 8, !tbaa !85
  br label %90

90:                                               ; preds = %78, %73
  %91 = load ptr, ptr %12, align 8, !tbaa !17
  %92 = getelementptr inbounds nuw %struct.ARKodeARKStepMemRec, ptr %91, i32 0, i32 61
  %93 = load ptr, ptr %92, align 8, !tbaa !111
  %94 = icmp ne ptr %93, null
  br i1 %94, label %95, label %107

95:                                               ; preds = %90
  %96 = load ptr, ptr %12, align 8, !tbaa !17
  %97 = getelementptr inbounds nuw %struct.ARKodeARKStepMemRec, ptr %96, i32 0, i32 61
  %98 = load ptr, ptr %97, align 8, !tbaa !111
  call void @free(ptr noundef %98) #8
  %99 = load ptr, ptr %12, align 8, !tbaa !17
  %100 = getelementptr inbounds nuw %struct.ARKodeARKStepMemRec, ptr %99, i32 0, i32 62
  %101 = load i32, ptr %100, align 8, !tbaa !112
  %102 = sext i32 %101 to i64
  %103 = load ptr, ptr %7, align 8, !tbaa !15
  %104 = getelementptr inbounds nuw %struct.ARKodeMemRec, ptr %103, i32 0, i32 116
  %105 = load i64, ptr %104, align 8, !tbaa !84
  %106 = sub nsw i64 %105, %102
  store i64 %106, ptr %104, align 8, !tbaa !84
  br label %107

107:                                              ; preds = %95, %90
  %108 = load ptr, ptr %12, align 8, !tbaa !17
  %109 = getelementptr inbounds nuw %struct.ARKodeARKStepMemRec, ptr %108, i32 0, i32 17
  %110 = load i32, ptr %109, align 4, !tbaa !158
  %111 = mul nsw i32 2, %110
  %112 = add nsw i32 %111, 2
  %113 = load i32, ptr %11, align 4, !tbaa !13
  %114 = add nsw i32 %112, %113
  %115 = load ptr, ptr %12, align 8, !tbaa !17
  %116 = getelementptr inbounds nuw %struct.ARKodeARKStepMemRec, ptr %115, i32 0, i32 62
  store i32 %114, ptr %116, align 8, !tbaa !112
  %117 = load ptr, ptr %12, align 8, !tbaa !17
  %118 = getelementptr inbounds nuw %struct.ARKodeARKStepMemRec, ptr %117, i32 0, i32 60
  store ptr null, ptr %118, align 8, !tbaa !110
  %119 = load ptr, ptr %12, align 8, !tbaa !17
  %120 = getelementptr inbounds nuw %struct.ARKodeARKStepMemRec, ptr %119, i32 0, i32 62
  %121 = load i32, ptr %120, align 8, !tbaa !112
  %122 = sext i32 %121 to i64
  %123 = call noalias ptr @calloc(i64 noundef %122, i64 noundef 8) #10
  %124 = load ptr, ptr %12, align 8, !tbaa !17
  %125 = getelementptr inbounds nuw %struct.ARKodeARKStepMemRec, ptr %124, i32 0, i32 60
  store ptr %123, ptr %125, align 8, !tbaa !110
  %126 = load ptr, ptr %12, align 8, !tbaa !17
  %127 = getelementptr inbounds nuw %struct.ARKodeARKStepMemRec, ptr %126, i32 0, i32 60
  %128 = load ptr, ptr %127, align 8, !tbaa !110
  %129 = icmp eq ptr %128, null
  br i1 %129, label %130, label %131

130:                                              ; preds = %107
  store i32 -20, ptr %6, align 4
  store i32 1, ptr %14, align 4
  br label %179

131:                                              ; preds = %107
  %132 = load ptr, ptr %12, align 8, !tbaa !17
  %133 = getelementptr inbounds nuw %struct.ARKodeARKStepMemRec, ptr %132, i32 0, i32 62
  %134 = load i32, ptr %133, align 8, !tbaa !112
  %135 = sext i32 %134 to i64
  %136 = load ptr, ptr %7, align 8, !tbaa !15
  %137 = getelementptr inbounds nuw %struct.ARKodeMemRec, ptr %136, i32 0, i32 115
  %138 = load i64, ptr %137, align 8, !tbaa !85
  %139 = add nsw i64 %138, %135
  store i64 %139, ptr %137, align 8, !tbaa !85
  %140 = load ptr, ptr %12, align 8, !tbaa !17
  %141 = getelementptr inbounds nuw %struct.ARKodeARKStepMemRec, ptr %140, i32 0, i32 61
  store ptr null, ptr %141, align 8, !tbaa !111
  %142 = load ptr, ptr %12, align 8, !tbaa !17
  %143 = getelementptr inbounds nuw %struct.ARKodeARKStepMemRec, ptr %142, i32 0, i32 62
  %144 = load i32, ptr %143, align 8, !tbaa !112
  %145 = sext i32 %144 to i64
  %146 = call noalias ptr @calloc(i64 noundef %145, i64 noundef 8) #10
  %147 = load ptr, ptr %12, align 8, !tbaa !17
  %148 = getelementptr inbounds nuw %struct.ARKodeARKStepMemRec, ptr %147, i32 0, i32 61
  store ptr %146, ptr %148, align 8, !tbaa !111
  %149 = load ptr, ptr %12, align 8, !tbaa !17
  %150 = getelementptr inbounds nuw %struct.ARKodeARKStepMemRec, ptr %149, i32 0, i32 61
  %151 = load ptr, ptr %150, align 8, !tbaa !111
  %152 = icmp eq ptr %151, null
  br i1 %152, label %153, label %154

153:                                              ; preds = %131
  store i32 -20, ptr %6, align 4
  store i32 1, ptr %14, align 4
  br label %179

154:                                              ; preds = %131
  %155 = load ptr, ptr %12, align 8, !tbaa !17
  %156 = getelementptr inbounds nuw %struct.ARKodeARKStepMemRec, ptr %155, i32 0, i32 62
  %157 = load i32, ptr %156, align 8, !tbaa !112
  %158 = sext i32 %157 to i64
  %159 = load ptr, ptr %7, align 8, !tbaa !15
  %160 = getelementptr inbounds nuw %struct.ARKodeMemRec, ptr %159, i32 0, i32 116
  %161 = load i64, ptr %160, align 8, !tbaa !84
  %162 = add nsw i64 %161, %158
  store i64 %162, ptr %160, align 8, !tbaa !84
  br label %163

163:                                              ; preds = %154, %61
  br label %164

164:                                              ; preds = %163, %56, %39
  br label %178

165:                                              ; preds = %21
  %166 = load ptr, ptr %12, align 8, !tbaa !17
  %167 = getelementptr inbounds nuw %struct.ARKodeARKStepMemRec, ptr %166, i32 0, i32 63
  store i32 0, ptr %167, align 4, !tbaa !113
  %168 = load ptr, ptr %12, align 8, !tbaa !17
  %169 = getelementptr inbounds nuw %struct.ARKodeARKStepMemRec, ptr %168, i32 0, i32 64
  store i32 0, ptr %169, align 8, !tbaa !114
  %170 = load ptr, ptr %12, align 8, !tbaa !17
  %171 = getelementptr inbounds nuw %struct.ARKodeARKStepMemRec, ptr %170, i32 0, i32 65
  store double 0.000000e+00, ptr %171, align 8, !tbaa !214
  %172 = load ptr, ptr %12, align 8, !tbaa !17
  %173 = getelementptr inbounds nuw %struct.ARKodeARKStepMemRec, ptr %172, i32 0, i32 66
  store double 1.000000e+00, ptr %173, align 8, !tbaa !215
  %174 = load ptr, ptr %12, align 8, !tbaa !17
  %175 = getelementptr inbounds nuw %struct.ARKodeARKStepMemRec, ptr %174, i32 0, i32 67
  store ptr null, ptr %175, align 8, !tbaa !115
  %176 = load ptr, ptr %12, align 8, !tbaa !17
  %177 = getelementptr inbounds nuw %struct.ARKodeARKStepMemRec, ptr %176, i32 0, i32 68
  store i32 0, ptr %177, align 8, !tbaa !116
  br label %178

178:                                              ; preds = %165, %164
  store i32 0, ptr %6, align 4
  store i32 1, ptr %14, align 4
  br label %179

179:                                              ; preds = %178, %153, %130, %19
  call void @llvm.lifetime.end.p0(i64 4, ptr %13) #8
  call void @llvm.lifetime.end.p0(i64 8, ptr %12) #8
  %180 = load i32, ptr %6, align 4
  ret i32 %180
}