; Function Attrs: nounwind uwtable
define range(i32 -21, 1) i32 @arkStep_SetInnerForcing(ptr noundef %0, double noundef %1, double noundef %2, ptr noundef %3, i32 noundef %4) #0 {
  %6 = getelementptr inbounds nuw i8, ptr %0, i64 136
  %7 = load ptr, ptr %6, align 8, !tbaa !77
  %8 = icmp eq ptr %7, null
  br i1 %8, label %arkStep_AccessStepMem.exit, label %9

arkStep_AccessStepMem.exit:                       ; preds = %5
  tail call void (ptr, i32, i32, ptr, ptr, ptr, ...) @arkProcessError(ptr noundef nonnull %0, i32 noundef -21, i32 noundef 2165, ptr noundef nonnull @__func__.arkStep_SetInnerForcing, ptr noundef nonnull @.str, ptr noundef nonnull @.str.57) #13
  br label %71

9:                                                ; preds = %5
  %10 = icmp sgt i32 %4, 0
  br i1 %10, label %11, label %64

11:                                               ; preds = %9
  %12 = getelementptr inbounds nuw i8, ptr %7, i64 28
  %13 = load i32, ptr %12, align 4, !tbaa !78
  %.not18 = icmp ne i32 %13, 0
  %spec.select = zext i1 %.not18 to i32
  %not..not18 = xor i1 %.not18, true
  %spec.select40 = zext i1 %not..not18 to i32
  %14 = getelementptr inbounds nuw i8, ptr %7, i64 444
  store i32 %spec.select, ptr %14, align 4, !tbaa !147
  %15 = getelementptr inbounds nuw i8, ptr %7, i64 448
  store i32 %spec.select40, ptr %15, align 8, !tbaa !148
  %16 = getelementptr inbounds nuw i8, ptr %7, i64 456
  store double %1, ptr %16, align 8, !tbaa !167
  %17 = getelementptr inbounds nuw i8, ptr %7, i64 464
  store double %2, ptr %17, align 8, !tbaa !168
  %18 = getelementptr inbounds nuw i8, ptr %7, i64 472
  store ptr %3, ptr %18, align 8, !tbaa !95
  %19 = getelementptr inbounds nuw i8, ptr %7, i64 480
  store i32 %4, ptr %19, align 8, !tbaa !96
  %20 = getelementptr inbounds nuw i8, ptr %7, i64 424
  %21 = load ptr, ptr %20, align 8, !tbaa !145
  %.not19 = icmp eq ptr %21, null
  br i1 %.not19, label %71, label %22

22:                                               ; preds = %11
  %23 = getelementptr inbounds nuw i8, ptr %7, i64 432
  %24 = load ptr, ptr %23, align 8, !tbaa !146
  %.not20 = icmp eq ptr %24, null
  br i1 %.not20, label %71, label %25

25:                                               ; preds = %22
  %26 = getelementptr inbounds nuw i8, ptr %7, i64 440
  %27 = load i32, ptr %26, align 8, !tbaa !144
  %28 = sub nsw i32 %27, %4
  %29 = getelementptr inbounds nuw i8, ptr %7, i64 100
  %30 = load i32, ptr %29, align 4, !tbaa !140
  %31 = shl nsw i32 %30, 1
  %32 = add nsw i32 %31, 2
  %33 = icmp slt i32 %28, %32
  br i1 %33, label %34, label %71

34:                                               ; preds = %25
  tail call void @free(ptr noundef nonnull %21) #13
  %35 = load i32, ptr %26, align 8, !tbaa !144
  %36 = sext i32 %35 to i64
  %37 = getelementptr inbounds nuw i8, ptr %0, i64 872
  %38 = load i64, ptr %37, align 8, !tbaa !88
  %39 = sub nsw i64 %38, %36
  store i64 %39, ptr %37, align 8, !tbaa !88
  %40 = load ptr, ptr %23, align 8, !tbaa !146
  %.not21 = icmp eq ptr %40, null
  br i1 %.not21, label %47, label %41

41:                                               ; preds = %34
  tail call void @free(ptr noundef nonnull %40) #13
  %42 = load i32, ptr %26, align 8, !tbaa !144
  %43 = sext i32 %42 to i64
  %44 = getelementptr inbounds nuw i8, ptr %0, i64 880
  %45 = load i64, ptr %44, align 8, !tbaa !87
  %46 = sub nsw i64 %45, %43
  store i64 %46, ptr %44, align 8, !tbaa !87
  br label %47

47:                                               ; preds = %41, %34
  %48 = load i32, ptr %29, align 4, !tbaa !140
  %49 = shl nsw i32 %48, 1
  %50 = add nuw i32 %4, 2
  %51 = add i32 %50, %49
  store i32 %51, ptr %26, align 8, !tbaa !144
  %52 = sext i32 %51 to i64
  %53 = tail call noalias ptr @calloc(i64 noundef %52, i64 noundef 8) #14
  store ptr %53, ptr %20, align 8, !tbaa !145
  %54 = icmp eq ptr %53, null
  br i1 %54, label %71, label %55

55:                                               ; preds = %47
  %56 = load i64, ptr %37, align 8, !tbaa !88
  %57 = add nsw i64 %56, %52
  store i64 %57, ptr %37, align 8, !tbaa !88
  %58 = tail call noalias ptr @calloc(i64 noundef %52, i64 noundef 8) #14
  store ptr %58, ptr %23, align 8, !tbaa !146
  %59 = icmp eq ptr %58, null
  br i1 %59, label %71, label %60

60:                                               ; preds = %55
  %61 = getelementptr inbounds nuw i8, ptr %0, i64 880
  %62 = load i64, ptr %61, align 8, !tbaa !87
  %63 = add nsw i64 %62, %52
  store i64 %63, ptr %61, align 8, !tbaa !87
  br label %71

64:                                               ; preds = %9
  %65 = getelementptr inbounds nuw i8, ptr %7, i64 444
  store i32 0, ptr %65, align 4, !tbaa !147
  %66 = getelementptr inbounds nuw i8, ptr %7, i64 448
  store i32 0, ptr %66, align 8, !tbaa !148
  %67 = getelementptr inbounds nuw i8, ptr %7, i64 456
  store double 0.000000e+00, ptr %67, align 8, !tbaa !167
  %68 = getelementptr inbounds nuw i8, ptr %7, i64 464
  store double 1.000000e+00, ptr %68, align 8, !tbaa !168
  %69 = getelementptr inbounds nuw i8, ptr %7, i64 472
  store ptr null, ptr %69, align 8, !tbaa !95
  %70 = getelementptr inbounds nuw i8, ptr %7, i64 480
  store i32 0, ptr %70, align 8, !tbaa !96
  br label %71

71:                                               ; preds = %arkStep_AccessStepMem.exit, %64, %25, %60, %22, %11, %55, %47
  %.0 = phi i32 [ -21, %arkStep_AccessStepMem.exit ], [ -20, %47 ], [ -20, %55 ], [ 0, %11 ], [ 0, %22 ], [ 0, %60 ], [ 0, %25 ], [ 0, %64 ]
  ret i32 %.0
}